;
; File generated by cc65 v 2.19 - Git fcda94f
;
	.fopt		compiler,"cc65 v 2.19 - Git fcda94f"
	.setcpu		"6502"
	.smart		on
	.autoimport	on
	.case		on
	.debuginfo	off
	.importzp	sp, sreg, regsave, regbank
	.importzp	tmp1, tmp2, tmp3, tmp4, ptr1, ptr2, ptr3, ptr4
	.macpack	longbranch
	.forceimport	__STARTUP__
	.export		_titlescreen
	.export		_gamescreen
	.export		_palette_title
	.export		_palette2
	.export		_palette5
	.import		_pal_bg
	.import		_pal_spr
	.import		_pal_col
	.import		_ppu_wait_nmi
	.import		_ppu_off
	.import		_ppu_on_all
	.import		_ppu_on_bg
	.import		_oam_clear
	.import		_oam_spr
	.import		_pad_poll
	.import		_bank_spr
	.import		_rand8
	.import		_vram_adr
	.import		_vram_unrle
	.import		_check_collision
	.export		_LeftHead
	.export		_Uphead
	.export		_DownHead
	.export		_RightHead
	.export		_pad1
	.export		_pad2
	.export		_i
	.export		_j
	.export		_collision
	.export		_Snake1
	.export		_mouse1
	.export		_movement
	.export		_test_collision
	.export		_draw_title_screen
	.export		_draw_mouse
	.export		_mouse_coord
	.export		_draw_sprites
	.export		_palette_sp
	.export		_mouse_pal
	.export		_main

.segment	"DATA"

_Snake1:
	.byte	$14
	.byte	$14
	.res	3,$00
_mouse1:
	.byte	$50
	.byte	$14
	.byte	$00
	.byte	$07
	.byte	$00
	.res	2,$00

.segment	"RODATA"

_titlescreen:
	.byte	$01
	.byte	$9D
	.byte	$01
	.byte	$20
	.byte	$B9
	.byte	$01
	.byte	$1D
	.byte	$9D
	.byte	$9D
	.byte	$B9
	.byte	$10
	.byte	$01
	.byte	$04
	.byte	$00
	.byte	$01
	.byte	$07
	.byte	$B3
	.byte	$B3
	.byte	$00
	.byte	$01
	.byte	$02
	.byte	$B2
	.byte	$01
	.byte	$07
	.byte	$B9
	.byte	$01
	.byte	$02
	.byte	$9D
	.byte	$9D
	.byte	$B9
	.byte	$10
	.byte	$00
	.byte	$01
	.byte	$0B
	.byte	$B3
	.byte	$B3
	.byte	$00
	.byte	$01
	.byte	$03
	.byte	$B2
	.byte	$01
	.byte	$02
	.byte	$00
	.byte	$01
	.byte	$04
	.byte	$B9
	.byte	$B9
	.byte	$9D
	.byte	$9D
	.byte	$B9
	.byte	$10
	.byte	$00
	.byte	$01
	.byte	$08
	.byte	$8D
	.byte	$00
	.byte	$00
	.byte	$B1
	.byte	$B1
	.byte	$00
	.byte	$01
	.byte	$04
	.byte	$8D
	.byte	$00
	.byte	$01
	.byte	$05
	.byte	$B9
	.byte	$B9
	.byte	$9D
	.byte	$9D
	.byte	$B9
	.byte	$CA
	.byte	$92
	.byte	$89
	.byte	$89
	.byte	$94
	.byte	$97
	.byte	$92
	.byte	$91
	.byte	$00
	.byte	$B1
	.byte	$8C
	.byte	$00
	.byte	$92
	.byte	$88
	.byte	$88
	.byte	$91
	.byte	$B1
	.byte	$9C
	.byte	$00
	.byte	$00
	.byte	$8C
	.byte	$00
	.byte	$92
	.byte	$89
	.byte	$89
	.byte	$94
	.byte	$97
	.byte	$9C
	.byte	$B9
	.byte	$9D
	.byte	$9D
	.byte	$B9
	.byte	$10
	.byte	$8A
	.byte	$C6
	.byte	$01
	.byte	$03
	.byte	$8A
	.byte	$8F
	.byte	$91
	.byte	$B1
	.byte	$8A
	.byte	$D4
	.byte	$8A
	.byte	$B1
	.byte	$B1
	.byte	$8E
	.byte	$B1
	.byte	$8A
	.byte	$00
	.byte	$00
	.byte	$8A
	.byte	$00
	.byte	$8E
	.byte	$00
	.byte	$01
	.byte	$03
	.byte	$8A
	.byte	$B9
	.byte	$9D
	.byte	$9D
	.byte	$B9
	.byte	$10
	.byte	$8A
	.byte	$D6
	.byte	$01
	.byte	$02
	.byte	$C6
	.byte	$8A
	.byte	$A7
	.byte	$8A
	.byte	$B1
	.byte	$8A
	.byte	$D4
	.byte	$8A
	.byte	$B1
	.byte	$B1
	.byte	$8A
	.byte	$B1
	.byte	$8E
	.byte	$92
	.byte	$88
	.byte	$93
	.byte	$00
	.byte	$8A
	.byte	$00
	.byte	$01
	.byte	$03
	.byte	$8A
	.byte	$B9
	.byte	$9D
	.byte	$9D
	.byte	$B9
	.byte	$10
	.byte	$8F
	.byte	$88
	.byte	$88
	.byte	$91
	.byte	$00
	.byte	$8A
	.byte	$00
	.byte	$8A
	.byte	$B1
	.byte	$8A
	.byte	$D4
	.byte	$8A
	.byte	$9D
	.byte	$9D
	.byte	$8A
	.byte	$B1
	.byte	$8A
	.byte	$8A
	.byte	$00
	.byte	$01
	.byte	$02
	.byte	$8A
	.byte	$9D
	.byte	$9D
	.byte	$00
	.byte	$00
	.byte	$8E
	.byte	$B9
	.byte	$9D
	.byte	$9D
	.byte	$B9
	.byte	$10
	.byte	$C6
	.byte	$01
	.byte	$02
	.byte	$8A
	.byte	$00
	.byte	$8A
	.byte	$00
	.byte	$8E
	.byte	$B1
	.byte	$8A
	.byte	$00
	.byte	$8A
	.byte	$B1
	.byte	$B3
	.byte	$8A
	.byte	$B1
	.byte	$8A
	.byte	$8F
	.byte	$88
	.byte	$91
	.byte	$00
	.byte	$8E
	.byte	$B2
	.byte	$B2
	.byte	$00
	.byte	$00
	.byte	$95
	.byte	$B9
	.byte	$9D
	.byte	$9D
	.byte	$B9
	.byte	$10
	.byte	$00
	.byte	$01
	.byte	$02
	.byte	$8A
	.byte	$00
	.byte	$8A
	.byte	$00
	.byte	$8F
	.byte	$91
	.byte	$8A
	.byte	$00
	.byte	$8A
	.byte	$B1
	.byte	$B3
	.byte	$8E
	.byte	$B1
	.byte	$8E
	.byte	$00
	.byte	$00
	.byte	$8A
	.byte	$00
	.byte	$8E
	.byte	$00
	.byte	$01
	.byte	$03
	.byte	$98
	.byte	$B9
	.byte	$9D
	.byte	$9D
	.byte	$B9
	.byte	$10
	.byte	$9B
	.byte	$88
	.byte	$88
	.byte	$93
	.byte	$C6
	.byte	$8B
	.byte	$00
	.byte	$00
	.byte	$8F
	.byte	$93
	.byte	$00
	.byte	$8B
	.byte	$B1
	.byte	$B3
	.byte	$95
	.byte	$C4
	.byte	$8B
	.byte	$00
	.byte	$00
	.byte	$95
	.byte	$D6
	.byte	$8F
	.byte	$89
	.byte	$89
	.byte	$9A
	.byte	$B2
	.byte	$9D
	.byte	$B9
	.byte	$9D
	.byte	$9D
	.byte	$B9
	.byte	$C6
	.byte	$01
	.byte	$05
	.byte	$00
	.byte	$01
	.byte	$06
	.byte	$B3
	.byte	$B3
	.byte	$98
	.byte	$B1
	.byte	$00
	.byte	$01
	.byte	$02
	.byte	$98
	.byte	$00
	.byte	$01
	.byte	$06
	.byte	$B9
	.byte	$9D
	.byte	$9D
	.byte	$B9
	.byte	$10
	.byte	$D6
	.byte	$01
	.byte	$02
	.byte	$00
	.byte	$01
	.byte	$07
	.byte	$B3
	.byte	$01
	.byte	$03
	.byte	$00
	.byte	$01
	.byte	$0B
	.byte	$B9
	.byte	$9D
	.byte	$9D
	.byte	$B9
	.byte	$B9
	.byte	$00
	.byte	$01
	.byte	$0B
	.byte	$B3
	.byte	$B3
	.byte	$00
	.byte	$01
	.byte	$0C
	.byte	$B9
	.byte	$9D
	.byte	$9D
	.byte	$D1
	.byte	$C3
	.byte	$01
	.byte	$05
	.byte	$D1
	.byte	$01
	.byte	$16
	.byte	$9D
	.byte	$9D
	.byte	$D1
	.byte	$C3
	.byte	$01
	.byte	$05
	.byte	$00
	.byte	$01
	.byte	$02
	.byte	$92
	.byte	$88
	.byte	$89
	.byte	$89
	.byte	$88
	.byte	$01
	.byte	$02
	.byte	$89
	.byte	$01
	.byte	$03
	.byte	$91
	.byte	$00
	.byte	$01
	.byte	$06
	.byte	$D1
	.byte	$9D
	.byte	$9D
	.byte	$D1
	.byte	$00
	.byte	$C3
	.byte	$01
	.byte	$04
	.byte	$00
	.byte	$01
	.byte	$02
	.byte	$8E
	.byte	$00
	.byte	$00
	.byte	$B0
	.byte	$C4
	.byte	$C4
	.byte	$00
	.byte	$01
	.byte	$04
	.byte	$8E
	.byte	$00
	.byte	$01
	.byte	$06
	.byte	$D1
	.byte	$9D
	.byte	$9D
	.byte	$D1
	.byte	$00
	.byte	$01
	.byte	$03
	.byte	$C3
	.byte	$C3
	.byte	$00
	.byte	$01
	.byte	$02
	.byte	$8A
	.byte	$00
	.byte	$00
	.byte	$B0
	.byte	$C4
	.byte	$C4
	.byte	$00
	.byte	$01
	.byte	$04
	.byte	$8A
	.byte	$00
	.byte	$01
	.byte	$06
	.byte	$D1
	.byte	$9D
	.byte	$9D
	.byte	$D1
	.byte	$C3
	.byte	$01
	.byte	$05
	.byte	$00
	.byte	$01
	.byte	$02
	.byte	$8A
	.byte	$00
	.byte	$86
	.byte	$B0
	.byte	$53
	.byte	$54
	.byte	$41
	.byte	$52
	.byte	$54
	.byte	$99
	.byte	$96
	.byte	$93
	.byte	$00
	.byte	$01
	.byte	$06
	.byte	$D1
	.byte	$9D
	.byte	$9D
	.byte	$D1
	.byte	$C3
	.byte	$01
	.byte	$05
	.byte	$00
	.byte	$01
	.byte	$02
	.byte	$8A
	.byte	$00
	.byte	$00
	.byte	$B0
	.byte	$C4
	.byte	$C4
	.byte	$00
	.byte	$01
	.byte	$0C
	.byte	$D1
	.byte	$9D
	.byte	$9D
	.byte	$D1
	.byte	$C3
	.byte	$C3
	.byte	$00
	.byte	$C3
	.byte	$01
	.byte	$02
	.byte	$00
	.byte	$01
	.byte	$02
	.byte	$8E
	.byte	$00
	.byte	$00
	.byte	$B0
	.byte	$C4
	.byte	$C4
	.byte	$00
	.byte	$01
	.byte	$0C
	.byte	$D1
	.byte	$9D
	.byte	$9D
	.byte	$D1
	.byte	$C3
	.byte	$01
	.byte	$05
	.byte	$00
	.byte	$01
	.byte	$02
	.byte	$8E
	.byte	$00
	.byte	$87
	.byte	$B0
	.byte	$45
	.byte	$58
	.byte	$49
	.byte	$54
	.byte	$00
	.byte	$00
	.byte	$9D
	.byte	$00
	.byte	$01
	.byte	$07
	.byte	$D1
	.byte	$9D
	.byte	$9D
	.byte	$D1
	.byte	$00
	.byte	$C3
	.byte	$01
	.byte	$04
	.byte	$00
	.byte	$01
	.byte	$02
	.byte	$8A
	.byte	$00
	.byte	$B0
	.byte	$C4
	.byte	$01
	.byte	$04
	.byte	$00
	.byte	$01
	.byte	$02
	.byte	$92
	.byte	$88
	.byte	$9A
	.byte	$D4
	.byte	$00
	.byte	$01
	.byte	$03
	.byte	$D1
	.byte	$9D
	.byte	$9D
	.byte	$D1
	.byte	$C3
	.byte	$01
	.byte	$05
	.byte	$00
	.byte	$01
	.byte	$02
	.byte	$8E
	.byte	$C4
	.byte	$01
	.byte	$05
	.byte	$C0
	.byte	$01
	.byte	$03
	.byte	$8A
	.byte	$00
	.byte	$01
	.byte	$06
	.byte	$D1
	.byte	$9D
	.byte	$9D
	.byte	$C3
	.byte	$01
	.byte	$06
	.byte	$00
	.byte	$01
	.byte	$02
	.byte	$8F
	.byte	$88
	.byte	$89
	.byte	$88
	.byte	$88
	.byte	$89
	.byte	$01
	.byte	$02
	.byte	$88
	.byte	$88
	.byte	$89
	.byte	$93
	.byte	$00
	.byte	$01
	.byte	$06
	.byte	$D1
	.byte	$9D
	.byte	$9D
	.byte	$D1
	.byte	$00
	.byte	$00
	.byte	$F6
	.byte	$C3
	.byte	$01
	.byte	$02
	.byte	$00
	.byte	$01
	.byte	$04
	.byte	$B0
	.byte	$B0
	.byte	$C4
	.byte	$C4
	.byte	$00
	.byte	$01
	.byte	$0C
	.byte	$D1
	.byte	$9D
	.byte	$9D
	.byte	$D1
	.byte	$B7
	.byte	$01
	.byte	$04
	.byte	$00
	.byte	$01
	.byte	$05
	.byte	$B0
	.byte	$B0
	.byte	$C4
	.byte	$C4
	.byte	$00
	.byte	$01
	.byte	$0C
	.byte	$D1
	.byte	$9D
	.byte	$9D
	.byte	$D1
	.byte	$01
	.byte	$0F
	.byte	$F5
	.byte	$01
	.byte	$05
	.byte	$D1
	.byte	$01
	.byte	$07
	.byte	$9D
	.byte	$01
	.byte	$20
	.byte	$00
	.byte	$01
	.byte	$3E
	.byte	$00
	.byte	$01
	.byte	$00
_gamescreen:
	.byte	$02
	.byte	$00
	.byte	$02
	.byte	$1E
	.byte	$17
	.byte	$00
	.byte	$12
	.byte	$02
	.byte	$09
	.byte	$00
	.byte	$02
	.byte	$0A
	.byte	$13
	.byte	$02
	.byte	$08
	.byte	$17
	.byte	$00
	.byte	$00
	.byte	$4C
	.byte	$69
	.byte	$76
	.byte	$65
	.byte	$73
	.byte	$3A
	.byte	$33
	.byte	$00
	.byte	$02
	.byte	$0C
	.byte	$53
	.byte	$63
	.byte	$6F
	.byte	$72
	.byte	$65
	.byte	$3A
	.byte	$30
	.byte	$30
	.byte	$00
	.byte	$17
	.byte	$1E
	.byte	$1F
	.byte	$20
	.byte	$1B
	.byte	$1E
	.byte	$20
	.byte	$1F
	.byte	$1E
	.byte	$1D
	.byte	$20
	.byte	$1F
	.byte	$1B
	.byte	$1F
	.byte	$20
	.byte	$1B
	.byte	$1E
	.byte	$20
	.byte	$1B
	.byte	$1F
	.byte	$20
	.byte	$1B
	.byte	$1F
	.byte	$1B
	.byte	$20
	.byte	$1B
	.byte	$1D
	.byte	$1B
	.byte	$20
	.byte	$1B
	.byte	$1F
	.byte	$1E
	.byte	$1F
	.byte	$1F
	.byte	$00
	.byte	$02
	.byte	$1D
	.byte	$1B
	.byte	$1D
	.byte	$00
	.byte	$00
	.byte	$B3
	.byte	$B3
	.byte	$C8
	.byte	$00
	.byte	$02
	.byte	$14
	.byte	$A2
	.byte	$02
	.byte	$02
	.byte	$00
	.byte	$1D
	.byte	$1D
	.byte	$00
	.byte	$00
	.byte	$1C
	.byte	$1C
	.byte	$00
	.byte	$02
	.byte	$14
	.byte	$C4
	.byte	$1C
	.byte	$1C
	.byte	$A2
	.byte	$00
	.byte	$20
	.byte	$1F
	.byte	$00
	.byte	$00
	.byte	$1C
	.byte	$1C
	.byte	$00
	.byte	$02
	.byte	$11
	.byte	$9D
	.byte	$00
	.byte	$B6
	.byte	$C4
	.byte	$1C
	.byte	$1C
	.byte	$A2
	.byte	$00
	.byte	$1D
	.byte	$1F
	.byte	$00
	.byte	$02
	.byte	$02
	.byte	$B6
	.byte	$B6
	.byte	$00
	.byte	$02
	.byte	$14
	.byte	$B6
	.byte	$00
	.byte	$02
	.byte	$02
	.byte	$1F
	.byte	$1D
	.byte	$00
	.byte	$00
	.byte	$1A
	.byte	$B6
	.byte	$B6
	.byte	$00
	.byte	$02
	.byte	$14
	.byte	$B6
	.byte	$00
	.byte	$02
	.byte	$02
	.byte	$1E
	.byte	$20
	.byte	$00
	.byte	$02
	.byte	$02
	.byte	$1A
	.byte	$B6
	.byte	$1A
	.byte	$00
	.byte	$02
	.byte	$12
	.byte	$B6
	.byte	$B6
	.byte	$00
	.byte	$02
	.byte	$02
	.byte	$1B
	.byte	$1B
	.byte	$00
	.byte	$02
	.byte	$02
	.byte	$1A
	.byte	$B6
	.byte	$1A
	.byte	$00
	.byte	$02
	.byte	$0E
	.byte	$B6
	.byte	$00
	.byte	$B6
	.byte	$02
	.byte	$02
	.byte	$00
	.byte	$02
	.byte	$03
	.byte	$20
	.byte	$20
	.byte	$00
	.byte	$02
	.byte	$03
	.byte	$B6
	.byte	$00
	.byte	$02
	.byte	$0F
	.byte	$B6
	.byte	$02
	.byte	$02
	.byte	$00
	.byte	$02
	.byte	$05
	.byte	$1E
	.byte	$1F
	.byte	$00
	.byte	$02
	.byte	$03
	.byte	$B6
	.byte	$00
	.byte	$02
	.byte	$04
	.byte	$9B
	.byte	$89
	.byte	$88
	.byte	$89
	.byte	$94
	.byte	$00
	.byte	$02
	.byte	$05
	.byte	$B6
	.byte	$B6
	.byte	$00
	.byte	$02
	.byte	$06
	.byte	$1B
	.byte	$20
	.byte	$00
	.byte	$02
	.byte	$03
	.byte	$B6
	.byte	$00
	.byte	$02
	.byte	$0F
	.byte	$B6
	.byte	$B6
	.byte	$00
	.byte	$02
	.byte	$06
	.byte	$1D
	.byte	$1B
	.byte	$00
	.byte	$02
	.byte	$03
	.byte	$B6
	.byte	$00
	.byte	$02
	.byte	$0F
	.byte	$B6
	.byte	$B6
	.byte	$00
	.byte	$02
	.byte	$06
	.byte	$20
	.byte	$1D
	.byte	$00
	.byte	$02
	.byte	$03
	.byte	$B6
	.byte	$00
	.byte	$02
	.byte	$10
	.byte	$B6
	.byte	$00
	.byte	$02
	.byte	$06
	.byte	$1F
	.byte	$1E
	.byte	$00
	.byte	$02
	.byte	$02
	.byte	$B6
	.byte	$B6
	.byte	$00
	.byte	$02
	.byte	$10
	.byte	$B6
	.byte	$B6
	.byte	$00
	.byte	$02
	.byte	$05
	.byte	$1D
	.byte	$20
	.byte	$00
	.byte	$02
	.byte	$02
	.byte	$B6
	.byte	$00
	.byte	$02
	.byte	$12
	.byte	$B6
	.byte	$00
	.byte	$02
	.byte	$05
	.byte	$20
	.byte	$1D
	.byte	$00
	.byte	$02
	.byte	$02
	.byte	$B6
	.byte	$00
	.byte	$02
	.byte	$12
	.byte	$B6
	.byte	$B6
	.byte	$00
	.byte	$02
	.byte	$04
	.byte	$1B
	.byte	$1F
	.byte	$00
	.byte	$00
	.byte	$B6
	.byte	$B6
	.byte	$00
	.byte	$02
	.byte	$13
	.byte	$B6
	.byte	$00
	.byte	$02
	.byte	$04
	.byte	$1F
	.byte	$20
	.byte	$00
	.byte	$00
	.byte	$B6
	.byte	$00
	.byte	$02
	.byte	$14
	.byte	$B6
	.byte	$B6
	.byte	$00
	.byte	$02
	.byte	$03
	.byte	$1B
	.byte	$1B
	.byte	$00
	.byte	$00
	.byte	$B6
	.byte	$B6
	.byte	$00
	.byte	$02
	.byte	$14
	.byte	$B6
	.byte	$00
	.byte	$02
	.byte	$03
	.byte	$1F
	.byte	$1E
	.byte	$00
	.byte	$00
	.byte	$B9
	.byte	$02
	.byte	$02
	.byte	$00
	.byte	$02
	.byte	$13
	.byte	$B6
	.byte	$B6
	.byte	$00
	.byte	$02
	.byte	$02
	.byte	$20
	.byte	$1D
	.byte	$00
	.byte	$B9
	.byte	$1C
	.byte	$1C
	.byte	$B6
	.byte	$02
	.byte	$05
	.byte	$00
	.byte	$02
	.byte	$0F
	.byte	$1C
	.byte	$1C
	.byte	$B6
	.byte	$00
	.byte	$1B
	.byte	$1E
	.byte	$00
	.byte	$B9
	.byte	$1C
	.byte	$1C
	.byte	$00
	.byte	$02
	.byte	$04
	.byte	$B6
	.byte	$02
	.byte	$05
	.byte	$00
	.byte	$02
	.byte	$0A
	.byte	$1C
	.byte	$1C
	.byte	$00
	.byte	$00
	.byte	$1D
	.byte	$1D
	.byte	$00
	.byte	$02
	.byte	$0D
	.byte	$B6
	.byte	$02
	.byte	$0A
	.byte	$E5
	.byte	$02
	.byte	$03
	.byte	$00
	.byte	$20
	.byte	$20
	.byte	$00
	.byte	$02
	.byte	$1D
	.byte	$20
	.byte	$1B
	.byte	$1D
	.byte	$1F
	.byte	$1B
	.byte	$1E
	.byte	$20
	.byte	$1F
	.byte	$1D
	.byte	$1E
	.byte	$1E
	.byte	$1B
	.byte	$20
	.byte	$20
	.byte	$1D
	.byte	$1E
	.byte	$1B
	.byte	$20
	.byte	$1D
	.byte	$1E
	.byte	$1B
	.byte	$20
	.byte	$1B
	.byte	$1F
	.byte	$20
	.byte	$1D
	.byte	$1E
	.byte	$20
	.byte	$1E
	.byte	$1E
	.byte	$20
	.byte	$1F
	.byte	$1E
	.byte	$C7
	.byte	$02
	.byte	$1F
	.byte	$00
	.byte	$02
	.byte	$07
	.byte	$44
	.byte	$11
	.byte	$00
	.byte	$02
	.byte	$03
	.byte	$54
	.byte	$11
	.byte	$04
	.byte	$51
	.byte	$00
	.byte	$02
	.byte	$02
	.byte	$40
	.byte	$54
	.byte	$00
	.byte	$00
	.byte	$11
	.byte	$00
	.byte	$02
	.byte	$02
	.byte	$44
	.byte	$01
	.byte	$00
	.byte	$00
	.byte	$11
	.byte	$00
	.byte	$02
	.byte	$02
	.byte	$04
	.byte	$11
	.byte	$00
	.byte	$44
	.byte	$11
	.byte	$00
	.byte	$02
	.byte	$03
	.byte	$45
	.byte	$00
	.byte	$04
	.byte	$05
	.byte	$05
	.byte	$45
	.byte	$50
	.byte	$50
	.byte	$54
	.byte	$11
	.byte	$00
	.byte	$02
	.byte	$06
	.byte	$00
	.byte	$02
	.byte	$00
_palette_title:
	.byte	$21
	.byte	$15
	.byte	$05
	.byte	$1B
	.byte	$21
	.byte	$01
	.byte	$21
	.byte	$31
	.byte	$21
	.byte	$06
	.byte	$16
	.byte	$26
	.byte	$21
	.byte	$09
	.byte	$19
	.byte	$29
_palette2:
	.byte	$21
	.byte	$15
	.byte	$05
	.byte	$1B
	.byte	$2C
	.byte	$27
	.byte	$21
	.byte	$0F
	.byte	$2C
	.byte	$06
	.byte	$16
	.byte	$26
	.byte	$2C
	.byte	$09
	.byte	$19
	.byte	$29
_palette5:
	.byte	$0F
	.byte	$09
	.byte	$06
	.byte	$29
	.byte	$0F
	.byte	$06
	.byte	$16
	.byte	$26
	.byte	$00
	.byte	$00
	.byte	$00
	.byte	$00
	.byte	$00
	.byte	$00
	.byte	$00
	.byte	$00
_LeftHead:
	.byte	$C0
	.byte	$C0
	.byte	$00
	.byte	$03
	.byte	$80
_Uphead:
	.byte	$C0
	.byte	$C1
	.byte	$01
	.byte	$03
	.byte	$80
_DownHead:
	.byte	$C1
	.byte	$C1
	.byte	$02
	.byte	$03
	.byte	$80
_RightHead:
	.byte	$C1
	.byte	$3F
	.byte	$03
	.byte	$03
	.byte	$80
_palette_sp:
	.byte	$0F
	.byte	$00
	.byte	$10
	.byte	$30
	.byte	$0F
	.byte	$01
	.byte	$21
	.byte	$31
	.byte	$0F
	.byte	$06
	.byte	$16
	.byte	$26
	.byte	$0F
	.byte	$09
	.byte	$06
	.byte	$29
_mouse_pal:
	.byte	$0F
	.byte	$06
	.byte	$16
	.byte	$26
	.byte	$00
	.byte	$00
	.byte	$00
	.byte	$00
	.byte	$00
	.byte	$00
	.byte	$00
	.byte	$00
	.byte	$00
	.byte	$00
	.byte	$00
	.byte	$00

.segment	"BSS"

.segment	"ZEROPAGE"
_pad1:
	.res	1,$00
_pad2:
	.res	1,$00
_i:
	.res	1,$00
_j:
	.res	1,$00
_collision:
	.res	1,$00
_spr:
	.res	1,$00

; ---------------------------------------------------------------
; void __near__ movement (void)
; ---------------------------------------------------------------

.segment	"CODE"

.proc	_movement: near

.segment	"CODE"

;
; if(pad1 & PAD_LEFT) {
;
	lda     _pad1
	and     #$02
	beq     L0012
;
; Snake1.x -= 1;
;
	dec     _Snake1
;
; Snake1.head_sprite = SNAKE_HEAD_TILE_LEFT;
;
	lda     #$00
;
; else if (pad1 & PAD_RIGHT){
;
	jmp     L000E
L0012:	lda     _pad1
	and     #$01
	beq     L0013
;
; Snake1.x += 1;
;
	inc     _Snake1
;
; Snake1.head_sprite = SNAKE_HEAD_TILE_RIGHT;
;
	lda     #$03
L000E:	sta     _Snake1+3
;
; if(pad1 & PAD_UP){
;
L0013:	lda     _pad1
	and     #$08
	beq     L0014
;
; Snake1.y -= 1;
;
	dec     _Snake1+1
;
; Snake1.head_sprite=SNAKE_HEAD_TILE_UP;
;
	lda     #$01
;
; else if (pad1 & PAD_DOWN){
;
	jmp     L000F
L0014:	lda     _pad1
	and     #$04
	beq     L0015
;
; Snake1.y += 1;
;
	inc     _Snake1+1
;
; Snake1.head_sprite=SNAKE_HEAD_TILE_DOWN;
;
	lda     #$02
L000F:	sta     _Snake1+3
;
; if(pad2 & PAD_LEFT){
;
L0015:	lda     _pad2
	and     #$02
	beq     L0016
;
; mouse1.mouse_x -= 1;
;
	dec     _mouse1
;
; mouse1.mouse_spr = MOUSE_LEFT;
;
	lda     #$07
;
; else if (pad2 & PAD_RIGHT){
;
	jmp     L0010
L0016:	lda     _pad2
	and     #$01
	beq     L0017
;
; mouse1.mouse_x += 1;
;
	inc     _mouse1
;
; mouse1.mouse_spr = MOUSE_RIGHT;
;
	lda     #$06
L0010:	sta     _mouse1+5
;
; if(pad2 & PAD_UP){
;
L0017:	lda     _pad2
	and     #$08
	beq     L0018
;
; mouse1.mouse_y -= 1;
;
	dec     _mouse1+1
;
; else if (pad2 & PAD_DOWN){
;
	rts
L0018:	lda     _pad2
	and     #$04
	beq     L000D
;
; mouse1.mouse_y += 1;
;
	inc     _mouse1+1
;
; } 
;
L000D:	rts

.endproc

; ---------------------------------------------------------------
; void __near__ test_collision (void)
; ---------------------------------------------------------------

.segment	"CODE"

.proc	_test_collision: near

.segment	"CODE"

;
; collision = check_collision(&Snake1, &mouse1);
;
	lda     #<(_Snake1)
	ldx     #>(_Snake1)
	jsr     pushax
	lda     #<(_mouse1)
	ldx     #>(_mouse1)
	jsr     _check_collision
	sta     _collision
;
; if (collision){
;
	lda     _collision
	beq     L0002
;
; pal_col(0,0x30); 
;
	lda     #$00
	jsr     pusha
	lda     #$30
;
; else{
;
	jmp     L0004
;
; pal_col(0,0x00);
;
L0002:	jsr     pusha
L0004:	jmp     _pal_col

.endproc

; ---------------------------------------------------------------
; void __near__ draw_title_screen (void)
; ---------------------------------------------------------------

.segment	"CODE"

.proc	_draw_title_screen: near

.segment	"CODE"

;
; ppu_off();
;
	jsr     _ppu_off
;
; oam_clear();
;
	jsr     _oam_clear
;
; vram_adr(0x2000);
;
	ldx     #$20
	lda     #$00
	jsr     _vram_adr
;
; vram_unrle(titlescreen);
;
	lda     #<(_titlescreen)
	ldx     #>(_titlescreen)
	jsr     _vram_unrle
;
; pal_bg(palette_title);
;
	lda     #<(_palette_title)
	ldx     #>(_palette_title)
	jsr     _pal_bg
;
; ppu_on_bg();
;
	jmp     _ppu_on_bg

.endproc

; ---------------------------------------------------------------
; void __near__ draw_mouse (void)
; ---------------------------------------------------------------

.segment	"CODE"

.proc	_draw_mouse: near

.segment	"CODE"

;
; oam_spr(mouse1.mouse_x, mouse1.mouse_y, mouse1.mouse_spr,mouse1.sprite_att );
;
	jsr     decsp3
	lda     _mouse1
	ldy     #$02
	sta     (sp),y
	lda     _mouse1+1
	dey
	sta     (sp),y
	lda     _mouse1+5
	dey
	sta     (sp),y
	lda     _mouse1+6
	jsr     _oam_spr
;
; mouse1.mouse_x+=mouse1.mouse_dx;
;
	lda     _mouse1+2
	clc
	adc     _mouse1
	sta     _mouse1
;
; mouse1.mouse_y+=mouse1.mouse_dy;
;
	lda     _mouse1+3
	clc
	adc     _mouse1+1
	sta     _mouse1+1
;
; if(mouse1.mouse_x>=(256-8)) mouse1.mouse_dx=-mouse1.mouse_dx;
;
	lda     _mouse1
	cmp     #$F8
	bcc     L0004
	lda     _mouse1+2
	eor     #$FF
	clc
	adc     #$01
	sta     _mouse1+2
;
; if(mouse1.mouse_y>=(240-8)) mouse1.mouse_dy=-mouse1.mouse_dy;
;
L0004:	lda     _mouse1+1
	cmp     #$E8
	bcc     L0003
	lda     _mouse1+3
	eor     #$FF
	clc
	adc     #$01
	sta     _mouse1+3
;
; }
;
L0003:	rts

.endproc

; ---------------------------------------------------------------
; void __near__ mouse_coord (void)
; ---------------------------------------------------------------

.segment	"CODE"

.proc	_mouse_coord: near

.segment	"CODE"

;
; mouse1.mouse_spr=MOUSE_LEFT;
;
	lda     #$07
	sta     _mouse1+5
;
; mouse1.mouse_x=rand8();
;
	jsr     _rand8
	sta     _mouse1
;
; mouse1.mouse_y=rand8();
;
	jsr     _rand8
	sta     _mouse1+1
;
; j=rand8();
;
	jsr     _rand8
	sta     _j
;
; spr=1+(rand8()%3);
;
	jsr     _rand8
	jsr     pushax
	lda     #$03
	jsr     tosumoda0
	clc
	adc     #$01
	sta     _spr
;
; mouse1.mouse_dx=j&1?-spr:spr;
;
	lda     _j
	and     #$01
	beq     L0008
	lda     _spr
	eor     #$FF
	clc
	adc     #$01
	jmp     L0009
L0008:	lda     _spr
L0009:	sta     _mouse1+2
;
; spr=1+(rand8()%3);
;
	jsr     _rand8
	jsr     pushax
	lda     #$03
	jsr     tosumoda0
	clc
	adc     #$01
	sta     _spr
;
; mouse1.mouse_dy=j&2?-spr:spr;
;
	lda     _j
	and     #$02
	beq     L000A
	lda     _spr
	eor     #$FF
	clc
	adc     #$01
	jmp     L000B
L000A:	lda     _spr
L000B:	sta     _mouse1+3
;
; }
;
	rts

.endproc

; ---------------------------------------------------------------
; void __near__ draw_sprites (void)
; ---------------------------------------------------------------

.segment	"CODE"

.proc	_draw_sprites: near

.segment	"CODE"

;
; oam_clear();
;
	jsr     _oam_clear
;
; oam_spr(Snake1.x,Snake1.y,Snake1.head_sprite,Snake1.head_sprite_attribute);
;
	jsr     decsp3
	lda     _Snake1
	ldy     #$02
	sta     (sp),y
	lda     _Snake1+1
	dey
	sta     (sp),y
	lda     _Snake1+3
	dey
	sta     (sp),y
	lda     _Snake1+4
	jmp     _oam_spr

.endproc

; ---------------------------------------------------------------
; void __near__ main (void)
; ---------------------------------------------------------------

.segment	"CODE"

.proc	_main: near

.segment	"CODE"

;
; ppu_off(); 
;
	jsr     _ppu_off
;
; pal_bg(palette_title);
;
	lda     #<(_palette_title)
	ldx     #>(_palette_title)
	jsr     _pal_bg
;
; pal_spr(palette5);
;
	lda     #<(_palette5)
	ldx     #>(_palette5)
	jsr     _pal_spr
;
; bank_spr(1);//load sprite sheet 2
;
	lda     #$01
	jsr     _bank_spr
;
; ppu_on_all();
;
	jsr     _ppu_on_all
;
; spr=0;
;
	lda     #$00
	sta     _spr
;
; mouse_coord();
;
	jsr     _mouse_coord
;
; ppu_wait_nmi(); // wait till beginning of the frame
;
L0002:	jsr     _ppu_wait_nmi
;
; pad1 = pad_poll(0); // read the first controller
;
	lda     #$00
	jsr     _pad_poll
	sta     _pad1
;
; pad2 = pad_poll(1); // read the second controller
;
	lda     #$01
	jsr     _pad_poll
	sta     _pad2
;
; movement();
;
	jsr     _movement
;
; draw_sprites();
;
	jsr     _draw_sprites
;
; draw_mouse();
;
	jsr     _draw_mouse
;
; while (1){
;
	jmp     L0002

.endproc

